target datalayout = "e-m:e-p270:32:32-p271:32:32-p272:64:64-i64:64-i128:128-f80:128-n8:16:32:64-S128"
target triple = "x86_64-pc-linux-gnu"

%struct.ObjectAddress = type { i32, i32, i32 }
%struct.RangeVar = type { i32, ptr, ptr, ptr, i8, i8, ptr, i32 }

; Function Attrs: nounwind uwtable
define dso_local { i64, i32 } @get_object_address_rv(i32 noundef %0, ptr noundef %1, ptr noundef %2, ptr noundef %3, i32 noundef %4, i1 noundef zeroext %5) #0 {
  %7 = alloca %struct.ObjectAddress, align 4
  %8 = alloca i32, align 4
  %9 = alloca ptr, align 8
  %10 = alloca ptr, align 8
  %11 = alloca ptr, align 8
  %12 = alloca i32, align 4
  %13 = alloca i8, align 1
  %14 = alloca { i64, i32 }, align 8
  %15 = alloca { i64, i32 }, align 8
  store i32 %0, ptr %8, align 4
  store ptr %1, ptr %9, align 8
  store ptr %2, ptr %10, align 8
  store ptr %3, ptr %11, align 8
  store i32 %4, ptr %12, align 4
  %16 = zext i1 %5 to i8
  store i8 %16, ptr %13, align 1
  %17 = load ptr, ptr %9, align 8
  %18 = icmp ne ptr %17, null
  br i1 %18, label %19, label %50

19:                                               ; preds = %6
  %20 = load ptr, ptr %9, align 8
  %21 = getelementptr inbounds nuw %struct.RangeVar, ptr %20, i32 0, i32 3
  %22 = load ptr, ptr %21, align 8
  %23 = call ptr @makeString(ptr noundef %22)
  %24 = load ptr, ptr %10, align 8
  %25 = call ptr @lcons(ptr noundef %23, ptr noundef %24)
  store ptr %25, ptr %10, align 8
  %26 = load ptr, ptr %9, align 8
  %27 = getelementptr inbounds nuw %struct.RangeVar, ptr %26, i32 0, i32 2
  %28 = load ptr, ptr %27, align 8
  %29 = icmp ne ptr %28, null
  br i1 %29, label %30, label %37

30:                                               ; preds = %19
  %31 = load ptr, ptr %9, align 8
  %32 = getelementptr inbounds nuw %struct.RangeVar, ptr %31, i32 0, i32 2
  %33 = load ptr, ptr %32, align 8
  %34 = call ptr @makeString(ptr noundef %33)
  %35 = load ptr, ptr %10, align 8
  %36 = call ptr @lcons(ptr noundef %34, ptr noundef %35)
  store ptr %36, ptr %10, align 8
  br label %37

37:                                               ; preds = %30, %19
  %38 = load ptr, ptr %9, align 8
  %39 = getelementptr inbounds nuw %struct.RangeVar, ptr %38, i32 0, i32 1
  %40 = load ptr, ptr %39, align 8
  %41 = icmp ne ptr %40, null
  br i1 %41, label %42, label %49

42:                                               ; preds = %37
  %43 = load ptr, ptr %9, align 8
  %44 = getelementptr inbounds nuw %struct.RangeVar, ptr %43, i32 0, i32 1
  %45 = load ptr, ptr %44, align 8
  %46 = call ptr @makeString(ptr noundef %45)
  %47 = load ptr, ptr %10, align 8
  %48 = call ptr @lcons(ptr noundef %46, ptr noundef %47)
  store ptr %48, ptr %10, align 8
  br label %49

49:                                               ; preds = %42, %37
  br label %50

50:                                               ; preds = %49, %6
  %51 = load i32, ptr %8, align 4
  %52 = load ptr, ptr %10, align 8
  %53 = load ptr, ptr %11, align 8
  %54 = load i32, ptr %12, align 4
  %55 = load i8, ptr %13, align 1, !range !4, !noundef !5
  %56 = trunc i8 %55 to i1
  %57 = call { i64, i32 } @get_object_address(i32 noundef %51, ptr noundef %52, ptr noundef %53, i32 noundef %54, i1 noundef zeroext %56)
  store { i64, i32 } %57, ptr %14, align 8
  call void @llvm.memcpy.p0.p0.i64(ptr align 4 %7, ptr align 8 %14, i64 12, i1 false)
  call void @llvm.memcpy.p0.p0.i64(ptr align 8 %15, ptr align 4 %7, i64 12, i1 false)
  %58 = load { i64, i32 }, ptr %15, align 8
  ret { i64, i32 } %58
}