; Function Attrs: nounwind uwtable
define dso_local { i64, i32 } @get_object_address_rv(i32 noundef %0, ptr noundef readonly captures(address_is_null) %1, ptr noundef %2, ptr noundef captures(address_is_null) %3, i32 noundef %4, i1 noundef zeroext %5) local_unnamed_addr #0 {
  %.not = icmp eq ptr %1, null
  br i1 %.not, label %23, label %7

7:                                                ; preds = %6
  %8 = getelementptr inbounds nuw i8, ptr %1, i64 24
  %9 = load ptr, ptr %8, align 8
  %10 = tail call ptr @makeString(ptr noundef %9) #11
  %11 = tail call ptr @lcons(ptr noundef %10, ptr noundef %2) #11
  %12 = getelementptr inbounds nuw i8, ptr %1, i64 16
  %13 = load ptr, ptr %12, align 8
  %.not20 = icmp eq ptr %13, null
  br i1 %.not20, label %17, label %14

14:                                               ; preds = %7
  %15 = tail call ptr @makeString(ptr noundef nonnull %13) #11
  %16 = tail call ptr @lcons(ptr noundef %15, ptr noundef %11) #11
  br label %17

17:                                               ; preds = %14, %7
  %.1 = phi ptr [ %16, %14 ], [ %11, %7 ]
  %18 = getelementptr inbounds nuw i8, ptr %1, i64 8
  %19 = load ptr, ptr %18, align 8
  %.not21 = icmp eq ptr %19, null
  br i1 %.not21, label %23, label %20

20:                                               ; preds = %17
  %21 = tail call ptr @makeString(ptr noundef nonnull %19) #11
  %22 = tail call ptr @lcons(ptr noundef %21, ptr noundef %.1) #11
  br label %23

23:                                               ; preds = %17, %20, %6
  %.0 = phi ptr [ %22, %20 ], [ %.1, %17 ], [ %2, %6 ]
  %24 = tail call { i64, i32 } @get_object_address(i32 noundef %0, ptr noundef %.0, ptr noundef %3, i32 noundef %4, i1 noundef zeroext %5)
  ret { i64, i32 } %24
}